target datalayout = "e-m:e-p270:32:32-p271:32:32-p272:64:64-i64:64-i128:128-f80:128-n8:16:32:64-S128"
target triple = "x86_64-unknown-linux-gnu"

%"class.std::ios_base::Init" = type { i8 }
%"class.cvc5::internal::smt::ResourceOutListener" = type { %"class.cvc5::internal::Listener", ptr }
%"class.cvc5::internal::Listener" = type { ptr }

$_ZN4cvc58internal3smt19ResourceOutListenerD2Ev = comdat any

$_ZN4cvc58internal3smt19ResourceOutListenerD0Ev = comdat any

@_ZStL8__ioinit = internal global %"class.std::ios_base::Init" zeroinitializer, align 1
@__dso_handle = external hidden global i8
@_ZTVN4cvc58internal3smt19ResourceOutListenerE = hidden unnamed_addr constant { [5 x ptr] } { [5 x ptr] [ptr null, ptr @_ZTIN4cvc58internal3smt19ResourceOutListenerE, ptr @_ZN4cvc58internal3smt19ResourceOutListenerD2Ev, ptr @_ZN4cvc58internal3smt19ResourceOutListenerD0Ev, ptr @_ZN4cvc58internal3smt19ResourceOutListener6notifyEv] }, align 8
@_ZTVN10__cxxabiv120__si_class_type_infoE = external global [0 x ptr]
@_ZTSN4cvc58internal3smt19ResourceOutListenerE = hidden constant [42 x i8] c"N4cvc58internal3smt19ResourceOutListenerE\00", align 1
@_ZTIN4cvc58internal8ListenerE = external constant ptr
@_ZTIN4cvc58internal3smt19ResourceOutListenerE = hidden constant { ptr, ptr, ptr } { ptr getelementptr inbounds (ptr, ptr @_ZTVN10__cxxabiv120__si_class_type_infoE, i64 2), ptr @_ZTSN4cvc58internal3smt19ResourceOutListenerE, ptr @_ZTIN4cvc58internal8ListenerE }, align 8
@llvm.global_ctors = appending global [1 x { i32, ptr, ptr }] [{ i32, ptr, ptr } { i32 65535, ptr @_GLOBAL__sub_I_listeners.cpp, ptr null }]

@_ZN4cvc58internal3smt19ResourceOutListenerC1ERNS0_12SolverEngineE = hidden unnamed_addr alias void (ptr, ptr), ptr @_ZN4cvc58internal3smt19ResourceOutListenerC2ERNS0_12SolverEngineE

; Function Attrs: uwtable
define internal void @__cxx_global_var_init() #0 section ".text.startup" {
entry:
  call void @_ZNSt8ios_base4InitC1Ev(ptr noundef nonnull align 1 dereferenceable(1) @_ZStL8__ioinit)
  %0 = call i32 @__cxa_atexit(ptr @_ZNSt8ios_base4InitD1Ev, ptr @_ZStL8__ioinit, ptr @__dso_handle) #3
  ret void
}

declare void @_ZNSt8ios_base4InitC1Ev(ptr noundef nonnull align 1 dereferenceable(1)) unnamed_addr #1

; Function Attrs: nounwind
declare void @_ZNSt8ios_base4InitD1Ev(ptr noundef nonnull align 1 dereferenceable(1)) unnamed_addr #2

; Function Attrs: nounwind
declare i32 @__cxa_atexit(ptr, ptr, ptr) #3

; Function Attrs: mustprogress uwtable
define hidden void @_ZN4cvc58internal3smt19ResourceOutListenerC2ERNS0_12SolverEngineE(ptr noundef nonnull align 8 dereferenceable(16) %this, ptr noundef nonnull align 8 dereferenceable(224) %slv) unnamed_addr #4 align 2 {
entry:
  %this.addr = alloca ptr, align 8
  %slv.addr = alloca ptr, align 8
  store ptr %this, ptr %this.addr, align 8
  store ptr %slv, ptr %slv.addr, align 8
  %this1 = load ptr, ptr %this.addr, align 8
  call void @_ZN4cvc58internal8ListenerC2Ev(ptr noundef nonnull align 8 dereferenceable(8) %this1)
  store ptr getelementptr inbounds ({ [5 x ptr] }, ptr @_ZTVN4cvc58internal3smt19ResourceOutListenerE, i32 0, i32 0, i32 2), ptr %this1, align 8
  %d_slv = getelementptr inbounds %"class.cvc5::internal::smt::ResourceOutListener", ptr %this1, i32 0, i32 1
  %0 = load ptr, ptr %slv.addr, align 8
  store ptr %0, ptr %d_slv, align 8
  ret void
}

declare void @_ZN4cvc58internal8ListenerC2Ev(ptr noundef nonnull align 8 dereferenceable(8)) unnamed_addr #1

; Function Attrs: mustprogress uwtable
define hidden void @_ZN4cvc58internal3smt19ResourceOutListener6notifyEv(ptr noundef nonnull align 8 dereferenceable(16) %this) unnamed_addr #4 align 2 {
entry:
  %this.addr = alloca ptr, align 8
  store ptr %this, ptr %this.addr, align 8
  %this1 = load ptr, ptr %this.addr, align 8
  %d_slv = getelementptr inbounds %"class.cvc5::internal::smt::ResourceOutListener", ptr %this1, i32 0, i32 1
  %0 = load ptr, ptr %d_slv, align 8
  call void @_ZN4cvc58internal12SolverEngine9interruptEv(ptr noundef nonnull align 8 dereferenceable(224) %0)
  ret void
}

declare void @_ZN4cvc58internal12SolverEngine9interruptEv(ptr noundef nonnull align 8 dereferenceable(224)) #1

; Function Attrs: mustprogress nounwind uwtable
define linkonce_odr hidden void @_ZN4cvc58internal3smt19ResourceOutListenerD2Ev(ptr noundef nonnull align 8 dereferenceable(16) %this) unnamed_addr #5 comdat align 2 {
entry:
  %this.addr = alloca ptr, align 8
  store ptr %this, ptr %this.addr, align 8
  %this1 = load ptr, ptr %this.addr, align 8
  call void @_ZN4cvc58internal8ListenerD2Ev(ptr noundef nonnull align 8 dereferenceable(8) %this1) #3
  ret void
}

; Function Attrs: mustprogress nounwind uwtable
define linkonce_odr hidden void @_ZN4cvc58internal3smt19ResourceOutListenerD0Ev(ptr noundef nonnull align 8 dereferenceable(16) %this) unnamed_addr #5 comdat align 2 {
entry:
  %this.addr = alloca ptr, align 8
  store ptr %this, ptr %this.addr, align 8
  %this1 = load ptr, ptr %this.addr, align 8
  call void @_ZN4cvc58internal3smt19ResourceOutListenerD2Ev(ptr noundef nonnull align 8 dereferenceable(16) %this1) #3
  call void @_ZdlPv(ptr noundef %this1) #7
  ret void
}

; Function Attrs: nounwind
declare void @_ZN4cvc58internal8ListenerD2Ev(ptr noundef nonnull align 8 dereferenceable(8)) unnamed_addr #2

; Function Attrs: nobuiltin nounwind
declare void @_ZdlPv(ptr noundef) #6

; Function Attrs: uwtable
define internal void @_GLOBAL__sub_I_listeners.cpp() #0 section ".text.startup" {
entry:
  call void @__cxx_global_var_init()
  ret void
}


!llvm.module.flags = !{!0, !1, !2, !3}

!0 = !{i32 1, !"wchar_size", i32 4}
!1 = !{i32 8, !"PIC Level", i32 2}
!2 = !{i32 7, !"uwtable", i32 2}
!3 = !{i32 7, !"frame-pointer", i32 2}
